
main.o:     file format elf64-x86-64


Disassembly of section .text:

0000000000000000 <main>:
   0:	55                   	push   %rbp
   1:	48 89 e5             	mov    %rsp,%rbp
   4:	48 8d 35 00 00 00 00 	lea    0x0(%rip),%rsi        # b <main+0xb>
   b:	48 8d 3d 00 00 00 00 	lea    0x0(%rip),%rdi        # 12 <main+0x12>
  12:	e8 00 00 00 00       	callq  17 <main+0x17>
  17:	be ba 12 03 00       	mov    $0x312ba,%esi
  1c:	48 89 c7             	mov    %rax,%rdi
  1f:	e8 00 00 00 00       	callq  24 <main+0x24>
  24:	48 8d 35 00 00 00 00 	lea    0x0(%rip),%rsi        # 2b <main+0x2b>
  2b:	48 89 c7             	mov    %rax,%rdi
  2e:	e8 00 00 00 00       	callq  33 <main+0x33>
  33:	b8 00 00 00 00       	mov    $0x0,%eax
  38:	5d                   	pop    %rbp
  39:	c3                   	retq   

000000000000003a <_Z41__static_initialization_and_destruction_0ii>:
  3a:	55                   	push   %rbp
  3b:	48 89 e5             	mov    %rsp,%rbp
  3e:	48 83 ec 10          	sub    $0x10,%rsp
  42:	89 7d fc             	mov    %edi,-0x4(%rbp)
  45:	89 75 f8             	mov    %esi,-0x8(%rbp)
  48:	83 7d fc 01          	cmpl   $0x1,-0x4(%rbp)
  4c:	75 32                	jne    80 <_Z41__static_initialization_and_destruction_0ii+0x46>
  4e:	81 7d f8 ff ff 00 00 	cmpl   $0xffff,-0x8(%rbp)
  55:	75 29                	jne    80 <_Z41__static_initialization_and_destruction_0ii+0x46>
  57:	48 8d 3d 00 00 00 00 	lea    0x0(%rip),%rdi        # 5e <_Z41__static_initialization_and_destruction_0ii+0x24>
  5e:	e8 00 00 00 00       	callq  63 <_Z41__static_initialization_and_destruction_0ii+0x29>
  63:	48 8d 15 00 00 00 00 	lea    0x0(%rip),%rdx        # 6a <_Z41__static_initialization_and_destruction_0ii+0x30>
  6a:	48 8d 35 00 00 00 00 	lea    0x0(%rip),%rsi        # 71 <_Z41__static_initialization_and_destruction_0ii+0x37>
  71:	48 8b 05 00 00 00 00 	mov    0x0(%rip),%rax        # 78 <_Z41__static_initialization_and_destruction_0ii+0x3e>
  78:	48 89 c7             	mov    %rax,%rdi
  7b:	e8 00 00 00 00       	callq  80 <_Z41__static_initialization_and_destruction_0ii+0x46>
  80:	90                   	nop
  81:	c9                   	leaveq 
  82:	c3                   	retq   

0000000000000083 <_GLOBAL__sub_I_main>:
  83:	55                   	push   %rbp
  84:	48 89 e5             	mov    %rsp,%rbp
  87:	be ff ff 00 00       	mov    $0xffff,%esi
  8c:	bf 01 00 00 00       	mov    $0x1,%edi
  91:	e8 a4 ff ff ff       	callq  3a <_Z41__static_initialization_and_destruction_0ii>
  96:	5d                   	pop    %rbp
  97:	c3                   	retq   
